target datalayout = "e-m:e-p270:32:32-p271:32:32-p272:64:64-i64:64-i128:128-f80:128-n8:16:32:64-S128"
target triple = "x86_64-pc-linux-gnu"

@dissector_ipv6 = internal global ptr null, align 8
@dissector_ip = internal global ptr null, align 8
@dissector_pw_ach = internal global ptr null, align 8

; Function Attrs: null_pointer_is_valid sspstrong uwtable
define hidden zeroext i1 @dissect_try_cw_first_nibble(ptr noundef %0, ptr noundef %1, ptr noundef %2) #0 {
  %4 = alloca i1, align 1
  %5 = alloca ptr, align 8
  %6 = alloca ptr, align 8
  %7 = alloca ptr, align 8
  %8 = alloca i8, align 1
  %9 = alloca i32, align 4
  store ptr %0, ptr %5, align 8
  store ptr %1, ptr %6, align 8
  store ptr %2, ptr %7, align 8
  call void @llvm.lifetime.start.p0(i64 1, ptr %8) #6
  %10 = load ptr, ptr %5, align 8
  %11 = call zeroext i8 @tvb_get_uint8(ptr noundef %10, i32 noundef 0)
  %12 = zext i8 %11 to i32
  %13 = ashr i32 %12, 4
  %14 = and i32 %13, 15
  %15 = trunc i32 %14 to i8
  store i8 %15, ptr %8, align 1
  %16 = load i8, ptr %8, align 1
  %17 = zext i8 %16 to i32
  switch i32 %17, label %36 [
    i32 6, label %18
    i32 4, label %24
    i32 1, label %30
  ]

18:                                               ; preds = %3
  %19 = load ptr, ptr @dissector_ipv6, align 8
  %20 = load ptr, ptr %5, align 8
  %21 = load ptr, ptr %6, align 8
  %22 = load ptr, ptr %7, align 8
  %23 = call i32 @call_dissector(ptr noundef %19, ptr noundef %20, ptr noundef %21, ptr noundef %22)
  store i1 true, ptr %4, align 1
  store i32 1, ptr %9, align 4
  br label %38

24:                                               ; preds = %3
  %25 = load ptr, ptr @dissector_ip, align 8
  %26 = load ptr, ptr %5, align 8
  %27 = load ptr, ptr %6, align 8
  %28 = load ptr, ptr %7, align 8
  %29 = call i32 @call_dissector(ptr noundef %25, ptr noundef %26, ptr noundef %27, ptr noundef %28)
  store i1 true, ptr %4, align 1
  store i32 1, ptr %9, align 4
  br label %38

30:                                               ; preds = %3
  %31 = load ptr, ptr @dissector_pw_ach, align 8
  %32 = load ptr, ptr %5, align 8
  %33 = load ptr, ptr %6, align 8
  %34 = load ptr, ptr %7, align 8
  %35 = call i32 @call_dissector(ptr noundef %31, ptr noundef %32, ptr noundef %33, ptr noundef %34)
  store i1 true, ptr %4, align 1
  store i32 1, ptr %9, align 4
  br label %38

36:                                               ; preds = %3
  br label %37

37:                                               ; preds = %36
  store i1 false, ptr %4, align 1
  store i32 1, ptr %9, align 4
  br label %38

38:                                               ; preds = %37, %30, %24, %18
  call void @llvm.lifetime.end.p0(i64 1, ptr %8) #6
  %39 = load i1, ptr %4, align 1
  ret i1 %39
}