; Function Attrs: null_pointer_is_valid sspstrong uwtable
define hidden noundef zeroext i1 @dissect_try_cw_first_nibble(ptr noundef %0, ptr noundef %1, ptr noundef %2) local_unnamed_addr #0 {
  %4 = tail call zeroext i8 @tvb_get_uint8(ptr noundef %0, i32 noundef 0)
  %5 = lshr i8 %4, 4
  switch i8 %5, label %10 [
    i8 6, label %.sink.split
    i8 4, label %6
    i8 1, label %7
  ]

6:                                                ; preds = %3
  br label %.sink.split

7:                                                ; preds = %3
  br label %.sink.split

.sink.split:                                      ; preds = %3, %6, %7
  %dissector_pw_ach.sink = phi ptr [ @dissector_pw_ach, %7 ], [ @dissector_ip, %6 ], [ @dissector_ipv6, %3 ]
  %8 = load ptr, ptr %dissector_pw_ach.sink, align 8
  %9 = tail call i32 @call_dissector(ptr noundef %8, ptr noundef %0, ptr noundef %1, ptr noundef %2)
  br label %10

10:                                               ; preds = %.sink.split, %3
  %.0 = phi i1 [ false, %3 ], [ true, %.sink.split ]
  ret i1 %.0
}